target datalayout = "e-m:e-p270:32:32-p271:32:32-p272:64:64-i64:64-i128:128-f80:128-n8:16:32:64-S128"
target triple = "x86_64-pc-linux-gnu"

%struct.OperationConfig = type { i8, ptr, ptr, ptr, ptr, ptr, ptr, i8, i8, i8, i64, i8, i8, i8, i8, i8, ptr, i8, ptr, i8, ptr, i64, ptr, %struct.dynbuf, ptr, ptr, i64, i64, i64, i64, ptr, ptr, ptr, ptr, i64, i64, i16, ptr, i64, i64, i64, i64, ptr, ptr, ptr, ptr, ptr, ptr, ptr, ptr, ptr, ptr, ptr, ptr, ptr, ptr, i32, ptr, ptr, ptr, ptr, i8, ptr, i8, i8, i8, i8, i8, i8, i8, i8, i8, i8, i8, i8, i8, i8, ptr, ptr, ptr, ptr, ptr, ptr, i64, ptr, ptr, ptr, ptr, ptr, ptr, ptr, ptr, ptr, ptr, ptr, ptr, ptr, ptr, ptr, ptr, ptr, ptr, ptr, ptr, ptr, ptr, ptr, ptr, ptr, ptr, ptr, ptr, ptr, ptr, i8, ptr, ptr, ptr, ptr, i64, i8, i8, i8, i8, i8, i8, i8, i8, i8, i8, i8, i8, i8, i8, i8, i8, i8, i8, i8, i8, ptr, ptr, ptr, ptr, i64, i64, i64, i64, i64, i32, i64, ptr, ptr, ptr, ptr, ptr, ptr, ptr, ptr, i32, i64, i64, i8, i8, i8, i8, i32, ptr, i8, i64, ptr, ptr, i8, i8, i64, i8, i8, i64, i64, ptr, ptr, i32, i64, i64, i8, i8, i8, i8, i8, i8, i8, i8, i64, i64, i8, i32, i8, i64, i8, i8, i8, i8, i8, i8, i8, i8, i8, ptr, i8, ptr, i8, i8, i8, i64, i8, i8, i8, i64, i8, ptr, i8, ptr, i32, i8, ptr, ptr, ptr, %struct.State, i8, i8, ptr, ptr, ptr }
%struct.dynbuf = type { ptr, i64, i64, i64 }
%struct.State = type { ptr, ptr, ptr, ptr, ptr, ptr, i64, i64, i64, i64 }

@__const.SetHTTPrequest.reqname = private unnamed_addr constant [6 x ptr] [ptr @.str.19, ptr @.str.20, ptr @.str.21, ptr @.str.22, ptr @.str.23, ptr @.str.24], align 16
@.str.25 = private unnamed_addr constant [75 x i8] c"You can only select one HTTP request method! You asked for both %s and %s.\00", align 1

; Function Attrs: nounwind uwtable
define dso_local i32 @SetHTTPrequest(ptr noundef %0, i32 noundef %1, ptr noundef %2) #0 {
  %4 = alloca i32, align 4
  %5 = alloca ptr, align 8
  %6 = alloca i32, align 4
  %7 = alloca ptr, align 8
  %8 = alloca [6 x ptr], align 16
  %9 = alloca i32, align 4
  store ptr %0, ptr %5, align 8, !tbaa !8
  store i32 %1, ptr %6, align 4, !tbaa !4
  store ptr %2, ptr %7, align 8, !tbaa !11
  call void @llvm.lifetime.start.p0(i64 48, ptr %8) #4
  call void @llvm.memcpy.p0.p0.i64(ptr align 16 %8, ptr align 16 @__const.SetHTTPrequest.reqname, i64 48, i1 false)
  %10 = load ptr, ptr %7, align 8, !tbaa !11
  %11 = load i32, ptr %10, align 4, !tbaa !4
  %12 = icmp eq i32 %11, 0
  br i1 %12, label %18, label %13

13:                                               ; preds = %3
  %14 = load ptr, ptr %7, align 8, !tbaa !11
  %15 = load i32, ptr %14, align 4, !tbaa !4
  %16 = load i32, ptr %6, align 4, !tbaa !4
  %17 = icmp eq i32 %15, %16
  br i1 %17, label %18, label %21

18:                                               ; preds = %13, %3
  %19 = load i32, ptr %6, align 4, !tbaa !4
  %20 = load ptr, ptr %7, align 8, !tbaa !11
  store i32 %19, ptr %20, align 4, !tbaa !4
  store i32 0, ptr %4, align 4
  store i32 1, ptr %9, align 4
  br label %34

21:                                               ; preds = %13
  %22 = load ptr, ptr %5, align 8, !tbaa !8
  %23 = getelementptr inbounds nuw %struct.OperationConfig, ptr %22, i32 0, i32 224
  %24 = load ptr, ptr %23, align 8, !tbaa !12
  %25 = load i32, ptr %6, align 4, !tbaa !4
  %26 = zext i32 %25 to i64
  %27 = getelementptr inbounds nuw [6 x ptr], ptr %8, i64 0, i64 %26
  %28 = load ptr, ptr %27, align 8, !tbaa !26
  %29 = load ptr, ptr %7, align 8, !tbaa !11
  %30 = load i32, ptr %29, align 4, !tbaa !4
  %31 = zext i32 %30 to i64
  %32 = getelementptr inbounds nuw [6 x ptr], ptr %8, i64 0, i64 %31
  %33 = load ptr, ptr %32, align 8, !tbaa !26
  call void (ptr, ptr, ...) @warnf(ptr noundef %24, ptr noundef @.str.25, ptr noundef %28, ptr noundef %33)
  store i32 1, ptr %4, align 4
  store i32 1, ptr %9, align 4
  br label %34

34:                                               ; preds = %21, %18
  call void @llvm.lifetime.end.p0(i64 48, ptr %8) #4
  %35 = load i32, ptr %4, align 4
  ret i32 %35
}