; Function Attrs: nounwind uwtable
define dso_local range(i32 0, 2) i32 @SetHTTPrequest(ptr noundef readonly captures(none) %0, i32 noundef %1, ptr noundef captures(none) %2) local_unnamed_addr #1 {
  %4 = load i32, ptr %2, align 4, !tbaa !4
  %5 = icmp eq i32 %4, 0
  %6 = icmp eq i32 %4, %1
  %or.cond = or i1 %5, %6
  br i1 %or.cond, label %7, label %8

7:                                                ; preds = %3
  store i32 %1, ptr %2, align 4, !tbaa !4
  br label %17

8:                                                ; preds = %3
  %9 = getelementptr inbounds nuw i8, ptr %0, i64 1328
  %10 = load ptr, ptr %9, align 8, !tbaa !8
  %11 = zext i32 %1 to i64
  %12 = getelementptr inbounds nuw [6 x ptr], ptr @__const.SetHTTPrequest.reqname, i64 0, i64 %11
  %13 = load ptr, ptr %12, align 8, !tbaa !24
  %14 = zext i32 %4 to i64
  %15 = getelementptr inbounds nuw [6 x ptr], ptr @__const.SetHTTPrequest.reqname, i64 0, i64 %14
  %16 = load ptr, ptr %15, align 8, !tbaa !24
  tail call void (ptr, ptr, ...) @warnf(ptr noundef %10, ptr noundef nonnull @.str.25, ptr noundef %13, ptr noundef %16) #3
  br label %17

17:                                               ; preds = %8, %7
  %.0 = phi i32 [ 0, %7 ], [ 1, %8 ]
  ret i32 %.0
}